target datalayout = "e-m:e-p270:32:32-p271:32:32-p272:64:64-i64:64-i128:128-f80:128-n8:16:32:64-S128"
target triple = "x86_64-unknown-linux-gnu"

%"class.node::EnabledDebugList" = type { [75 x i8] }
%"class.std::__cxx11::basic_string" = type { %"struct.std::__cxx11::basic_string<char>::_Alloc_hider", i64, %union.anon }
%"struct.std::__cxx11::basic_string<char>::_Alloc_hider" = type { ptr }
%union.anon = type { i64, [8 x i8] }
%"class.std::unique_ptr.331" = type { %"struct.std::__uniq_ptr_data.332" }
%"struct.std::__uniq_ptr_data.332" = type { %"class.std::__uniq_ptr_impl.333" }
%"class.std::__uniq_ptr_impl.333" = type { %"class.std::tuple.334" }
%"class.std::tuple.334" = type { %"struct.std::_Tuple_impl.335" }
%"struct.std::_Tuple_impl.335" = type { %"struct.std::_Head_base.338" }
%"struct.std::_Head_base.338" = type { ptr }
%"class.v8_inspector::StringView" = type { i8, i64, %union.anon.354 }
%union.anon.354 = type { ptr }
%"class.std::unique_ptr.585" = type { %"struct.std::__uniq_ptr_data.586" }
%"struct.std::__uniq_ptr_data.586" = type { %"class.std::__uniq_ptr_impl.587" }
%"class.std::__uniq_ptr_impl.587" = type { %"class.std::tuple.588" }
%"class.std::tuple.588" = type { %"struct.std::_Tuple_impl.589" }
%"struct.std::_Tuple_impl.589" = type { %"struct.std::_Head_base.592" }
%"struct.std::_Head_base.592" = type { ptr }
%"class.std::unique_ptr.549" = type { %"struct.std::__uniq_ptr_data.550" }
%"struct.std::__uniq_ptr_data.550" = type { %"class.std::__uniq_ptr_impl.551" }
%"class.std::__uniq_ptr_impl.551" = type { %"class.std::tuple.552" }
%"class.std::tuple.552" = type { %"struct.std::_Tuple_impl.553" }
%"struct.std::_Tuple_impl.553" = type { %"struct.std::_Head_base.556" }
%"struct.std::_Head_base.556" = type { ptr }
%"class.std::unique_ptr.557" = type { %"struct.std::__uniq_ptr_data.558" }
%"struct.std::__uniq_ptr_data.558" = type { %"class.std::__uniq_ptr_impl.559" }
%"class.std::__uniq_ptr_impl.559" = type { %"class.std::tuple.560" }
%"class.std::tuple.560" = type { %"struct.std::_Tuple_impl.561" }
%"struct.std::_Tuple_impl.561" = type { %"struct.std::_Head_base.564" }
%"struct.std::_Head_base.564" = type { ptr }
%"class.std::unique_ptr.533" = type { %"struct.std::__uniq_ptr_data.534" }
%"struct.std::__uniq_ptr_data.534" = type { %"class.std::__uniq_ptr_impl.535" }
%"class.std::__uniq_ptr_impl.535" = type { %"class.std::tuple.536" }
%"class.std::tuple.536" = type { %"struct.std::_Tuple_impl.537" }
%"struct.std::_Tuple_impl.537" = type { %"struct.std::_Head_base.540" }
%"struct.std::_Head_base.540" = type { ptr }
%"class.std::unique_ptr.541" = type { %"struct.std::__uniq_ptr_data.542" }
%"struct.std::__uniq_ptr_data.542" = type { %"class.std::__uniq_ptr_impl.543" }
%"class.std::__uniq_ptr_impl.543" = type { %"class.std::tuple.544" }
%"class.std::tuple.544" = type { %"struct.std::_Tuple_impl.545" }
%"struct.std::_Tuple_impl.545" = type { %"struct.std::_Head_base.548" }
%"struct.std::_Head_base.548" = type { ptr }
%"class.std::unique_ptr.525" = type { %"struct.std::__uniq_ptr_data.526" }
%"struct.std::__uniq_ptr_data.526" = type { %"class.std::__uniq_ptr_impl.527" }
%"class.std::__uniq_ptr_impl.527" = type { %"class.std::tuple.528" }
%"class.std::tuple.528" = type { %"struct.std::_Tuple_impl.529" }
%"struct.std::_Tuple_impl.529" = type { %"struct.std::_Head_base.532" }
%"struct.std::_Head_base.532" = type { ptr }
%"class.node::inspector::(anonymous namespace)::ChannelImpl" = type <{ %"class.v8_inspector::V8Inspector::Channel", %"class.node::inspector::protocol::FrontendChannel", %"class.std::unique_ptr.525", %"class.std::unique_ptr.533", %"class.std::unique_ptr.541", %"class.std::unique_ptr.331", %"class.std::unique_ptr.549", %"class.std::unique_ptr.557", i8, i8, [6 x i8] }>
%"class.v8_inspector::V8Inspector::Channel" = type { ptr }
%"class.node::inspector::protocol::FrontendChannel" = type { ptr }

@stderr = external global ptr, align 8
@_ZN4node11per_process18enabled_debug_listE = external global %"class.node::EnabledDebugList", align 1
@.str.86 = private unnamed_addr constant [21 x i8] c"[inspector send] %s\0A\00", align 1

; Function Attrs: mustprogress nounwind uwtable
define linkonce_odr dso_local noundef nonnull align 8 dereferenceable(8) ptr @_ZNSt10_Head_baseILm0EPN4node9inspector24InspectorSessionDelegateELb0EE7_M_headERKS4_(ptr noundef nonnull align 8 dereferenceable(8) %__b) #4 comdat align 2 {
entry:
  %__b.addr = alloca ptr, align 8
  store ptr %__b, ptr %__b.addr, align 8
  %0 = load ptr, ptr %__b.addr, align 8
  %_M_head_impl = getelementptr inbounds %"struct.std::_Head_base.338", ptr %0, i32 0, i32 0
  ret ptr %_M_head_impl
}

; Function Attrs: mustprogress nounwind uwtable
define linkonce_odr dso_local noundef nonnull align 8 dereferenceable(8) ptr @_ZNSt11_Tuple_implILm0EJPN4node9inspector24InspectorSessionDelegateESt14default_deleteIS2_EEE7_M_headERKS6_(ptr noundef nonnull align 8 dereferenceable(8) %__t) #4 comdat align 2 {
entry:
  %__t.addr = alloca ptr, align 8
  store ptr %__t, ptr %__t.addr, align 8
  %0 = load ptr, ptr %__t.addr, align 8
  %call = call noundef nonnull align 8 dereferenceable(8) ptr @_ZNSt10_Head_baseILm0EPN4node9inspector24InspectorSessionDelegateELb0EE7_M_headERKS4_(ptr noundef nonnull align 8 dereferenceable(8) %0) #3
  ret ptr %call
}

; Function Attrs: mustprogress nounwind uwtable
define linkonce_odr dso_local noundef nonnull align 8 dereferenceable(8) ptr @_ZNSt10_Head_baseILm0EPN12v8_inspector12StringBufferELb0EE7_M_headERKS3_(ptr noundef nonnull align 8 dereferenceable(8) %__b) #4 comdat align 2 {
entry:
  %__b.addr = alloca ptr, align 8
  store ptr %__b, ptr %__b.addr, align 8
  %0 = load ptr, ptr %__b.addr, align 8
  %_M_head_impl = getelementptr inbounds %"struct.std::_Head_base.592", ptr %0, i32 0, i32 0
  ret ptr %_M_head_impl
}

; Function Attrs: mustprogress nounwind uwtable
define linkonce_odr dso_local noundef nonnull align 8 dereferenceable(8) ptr @_ZSt12__get_helperILm0EPN4node9inspector24InspectorSessionDelegateEJSt14default_deleteIS2_EEERKT0_RKSt11_Tuple_implIXT_EJS6_DpT1_EE(ptr noundef nonnull align 8 dereferenceable(8) %__t) #4 comdat {
entry:
  %__t.addr = alloca ptr, align 8
  store ptr %__t, ptr %__t.addr, align 8
  %0 = load ptr, ptr %__t.addr, align 8
  %call = call noundef nonnull align 8 dereferenceable(8) ptr @_ZNSt11_Tuple_implILm0EJPN4node9inspector24InspectorSessionDelegateESt14default_deleteIS2_EEE7_M_headERKS6_(ptr noundef nonnull align 8 dereferenceable(8) %0) #3
  ret ptr %call
}

; Function Attrs: mustprogress nounwind uwtable
define linkonce_odr dso_local noundef nonnull align 8 dereferenceable(8) ptr @_ZNSt11_Tuple_implILm0EJPN12v8_inspector12StringBufferESt14default_deleteIS1_EEE7_M_headERKS5_(ptr noundef nonnull align 8 dereferenceable(8) %__t) #4 comdat align 2 {
entry:
  %__t.addr = alloca ptr, align 8
  store ptr %__t, ptr %__t.addr, align 8
  %0 = load ptr, ptr %__t.addr, align 8
  %call = call noundef nonnull align 8 dereferenceable(8) ptr @_ZNSt10_Head_baseILm0EPN12v8_inspector12StringBufferELb0EE7_M_headERKS3_(ptr noundef nonnull align 8 dereferenceable(8) %0) #3
  ret ptr %call
}

; Function Attrs: mustprogress nounwind uwtable
define linkonce_odr dso_local noundef nonnull align 8 dereferenceable(8) ptr @_ZSt3getILm0EJPN4node9inspector24InspectorSessionDelegateESt14default_deleteIS2_EEERKNSt13tuple_elementIXT_ESt5tupleIJDpT0_EEE4typeERKSA_(ptr noundef nonnull align 8 dereferenceable(8) %__t) #4 comdat {
entry:
  %__t.addr = alloca ptr, align 8
  store ptr %__t, ptr %__t.addr, align 8
  %0 = load ptr, ptr %__t.addr, align 8
  %call = call noundef nonnull align 8 dereferenceable(8) ptr @_ZSt12__get_helperILm0EPN4node9inspector24InspectorSessionDelegateEJSt14default_deleteIS2_EEERKT0_RKSt11_Tuple_implIXT_EJS6_DpT1_EE(ptr noundef nonnull align 8 dereferenceable(8) %0) #3
  ret ptr %call
}

; Function Attrs: mustprogress nounwind uwtable
define linkonce_odr dso_local noundef nonnull align 8 dereferenceable(8) ptr @_ZSt12__get_helperILm0EPN12v8_inspector12StringBufferEJSt14default_deleteIS1_EEERKT0_RKSt11_Tuple_implIXT_EJS5_DpT1_EE(ptr noundef nonnull align 8 dereferenceable(8) %__t) #4 comdat {
entry:
  %__t.addr = alloca ptr, align 8
  store ptr %__t, ptr %__t.addr, align 8
  %0 = load ptr, ptr %__t.addr, align 8
  %call = call noundef nonnull align 8 dereferenceable(8) ptr @_ZNSt11_Tuple_implILm0EJPN12v8_inspector12StringBufferESt14default_deleteIS1_EEE7_M_headERKS5_(ptr noundef nonnull align 8 dereferenceable(8) %0) #3
  ret ptr %call
}

; Function Attrs: mustprogress nounwind uwtable
define linkonce_odr dso_local noundef ptr @_ZNKSt15__uniq_ptr_implIN4node9inspector24InspectorSessionDelegateESt14default_deleteIS2_EE6_M_ptrEv(ptr noundef nonnull align 8 dereferenceable(8) %this) #4 comdat align 2 {
entry:
  %this.addr = alloca ptr, align 8
  store ptr %this, ptr %this.addr, align 8
  %this1 = load ptr, ptr %this.addr, align 8
  %_M_t = getelementptr inbounds %"class.std::__uniq_ptr_impl.333", ptr %this1, i32 0, i32 0
  %call = call noundef nonnull align 8 dereferenceable(8) ptr @_ZSt3getILm0EJPN4node9inspector24InspectorSessionDelegateESt14default_deleteIS2_EEERKNSt13tuple_elementIXT_ESt5tupleIJDpT0_EEE4typeERKSA_(ptr noundef nonnull align 8 dereferenceable(8) %_M_t) #3
  %0 = load ptr, ptr %call, align 8
  ret ptr %0
}

; Function Attrs: mustprogress nounwind uwtable
define linkonce_odr dso_local noundef nonnull align 8 dereferenceable(8) ptr @_ZSt3getILm0EJPN12v8_inspector12StringBufferESt14default_deleteIS1_EEERKNSt13tuple_elementIXT_ESt5tupleIJDpT0_EEE4typeERKS9_(ptr noundef nonnull align 8 dereferenceable(8) %__t) #4 comdat {
entry:
  %__t.addr = alloca ptr, align 8
  store ptr %__t, ptr %__t.addr, align 8
  %0 = load ptr, ptr %__t.addr, align 8
  %call = call noundef nonnull align 8 dereferenceable(8) ptr @_ZSt12__get_helperILm0EPN12v8_inspector12StringBufferEJSt14default_deleteIS1_EEERKT0_RKSt11_Tuple_implIXT_EJS5_DpT1_EE(ptr noundef nonnull align 8 dereferenceable(8) %0) #3
  ret ptr %call
}

; Function Attrs: mustprogress nounwind uwtable
define linkonce_odr dso_local noundef ptr @_ZNKSt10unique_ptrIN4node9inspector24InspectorSessionDelegateESt14default_deleteIS2_EE3getEv(ptr noundef nonnull align 8 dereferenceable(8) %this) #4 comdat align 2 {
entry:
  %this.addr = alloca ptr, align 8
  store ptr %this, ptr %this.addr, align 8
  %this1 = load ptr, ptr %this.addr, align 8
  %_M_t = getelementptr inbounds %"class.std::unique_ptr.331", ptr %this1, i32 0, i32 0
  %call = call noundef ptr @_ZNKSt15__uniq_ptr_implIN4node9inspector24InspectorSessionDelegateESt14default_deleteIS2_EE6_M_ptrEv(ptr noundef nonnull align 8 dereferenceable(8) %_M_t) #3
  ret ptr %call
}

; Function Attrs: mustprogress nounwind uwtable
define linkonce_odr dso_local noundef ptr @_ZNKSt15__uniq_ptr_implIN12v8_inspector12StringBufferESt14default_deleteIS1_EE6_M_ptrEv(ptr noundef nonnull align 8 dereferenceable(8) %this) #4 comdat align 2 {
entry:
  %this.addr = alloca ptr, align 8
  store ptr %this, ptr %this.addr, align 8
  %this1 = load ptr, ptr %this.addr, align 8
  %_M_t = getelementptr inbounds %"class.std::__uniq_ptr_impl.587", ptr %this1, i32 0, i32 0
  %call = call noundef nonnull align 8 dereferenceable(8) ptr @_ZSt3getILm0EJPN12v8_inspector12StringBufferESt14default_deleteIS1_EEERKNSt13tuple_elementIXT_ESt5tupleIJDpT0_EEE4typeERKS9_(ptr noundef nonnull align 8 dereferenceable(8) %_M_t) #3
  %0 = load ptr, ptr %call, align 8
  ret ptr %0
}

; Function Attrs: mustprogress nounwind uwtable
define linkonce_odr dso_local noundef ptr @_ZNKSt10unique_ptrIN4node9inspector24InspectorSessionDelegateESt14default_deleteIS2_EEptEv(ptr noundef nonnull align 8 dereferenceable(8) %this) #4 comdat align 2 {
entry:
  %this.addr = alloca ptr, align 8
  store ptr %this, ptr %this.addr, align 8
  %this1 = load ptr, ptr %this.addr, align 8
  %call = call noundef ptr @_ZNKSt10unique_ptrIN4node9inspector24InspectorSessionDelegateESt14default_deleteIS2_EE3getEv(ptr noundef nonnull align 8 dereferenceable(8) %this1) #3
  ret ptr %call
}

; Function Attrs: mustprogress nounwind uwtable
define linkonce_odr dso_local noundef ptr @_ZNKSt10unique_ptrIN12v8_inspector12StringBufferESt14default_deleteIS1_EE3getEv(ptr noundef nonnull align 8 dereferenceable(8) %this) #4 comdat align 2 {
entry:
  %this.addr = alloca ptr, align 8
  store ptr %this, ptr %this.addr, align 8
  %this1 = load ptr, ptr %this.addr, align 8
  %_M_t = getelementptr inbounds %"class.std::unique_ptr.585", ptr %this1, i32 0, i32 0
  %call = call noundef ptr @_ZNKSt15__uniq_ptr_implIN12v8_inspector12StringBufferESt14default_deleteIS1_EE6_M_ptrEv(ptr noundef nonnull align 8 dereferenceable(8) %_M_t) #3
  ret ptr %call
}

; Function Attrs: mustprogress nounwind uwtable
define internal void @_ZN4node9inspector12_GLOBAL__N_111ChannelImpl21sendMessageToFrontendERKN12v8_inspector10StringViewE(ptr noundef nonnull align 8 dereferenceable(72) %this, ptr noundef nonnull align 8 dereferenceable(24) %message) #4 align 2 {
entry:
  %this.addr.i.i = alloca ptr, align 8
  %category.addr.i.i = alloca i32, align 4
  %list.addr.i = alloca ptr, align 8
  %cat.addr.i3 = alloca i32, align 4
  %format.addr.i4 = alloca ptr, align 8
  %args.addr.i5 = alloca ptr, align 8
  %cat.addr.i = alloca i32, align 4
  %format.addr.i = alloca ptr, align 8
  %args.addr.i = alloca ptr, align 8
  %this.addr.i = alloca ptr, align 8
  %category.addr.i = alloca i32, align 4
  %this.addr = alloca ptr, align 8
  %message.addr = alloca ptr, align 8
  %raw_message = alloca %"class.std::__cxx11::basic_string", align 8
  %agg.tmp = alloca %"class.v8_inspector::StringView", align 8
  store ptr %this, ptr %this.addr, align 8
  store ptr %message, ptr %message.addr, align 8
  %this1 = load ptr, ptr %this.addr, align 8
  store ptr @_ZN4node11per_process18enabled_debug_listE, ptr %this.addr.i, align 8
  store i32 66, ptr %category.addr.i, align 4
  %this1.i = load ptr, ptr %this.addr.i, align 8
  %0 = load i32, ptr %category.addr.i, align 4
  %idxprom.i = zext i32 %0 to i64
  %arrayidx.i = getelementptr inbounds [75 x i8], ptr %this1.i, i64 0, i64 %idxprom.i
  %1 = load i8, ptr %arrayidx.i, align 1
  %tobool.i = trunc i8 %1 to i1
  br i1 %tobool.i, label %if.then, label %if.end

if.then:                                          ; preds = %entry
  %2 = load ptr, ptr %message.addr, align 8
  call void @llvm.memcpy.p0.p0.i64(ptr align 8 %agg.tmp, ptr align 8 %2, i64 24, i1 false)
  call void @_ZN4node9inspector8protocol10StringUtil16StringViewToUtf8B5cxx11EN12v8_inspector10StringViewE(ptr sret(%"class.std::__cxx11::basic_string") align 8 %raw_message, ptr noundef byval(%"class.v8_inspector::StringView") align 8 %agg.tmp)
  store i32 66, ptr %cat.addr.i, align 4
  store ptr @.str.86, ptr %format.addr.i, align 8
  store ptr %raw_message, ptr %args.addr.i, align 8
  %3 = load i32, ptr %cat.addr.i, align 4
  %4 = load ptr, ptr %format.addr.i, align 8
  %5 = load ptr, ptr %args.addr.i, align 8
  store ptr @_ZN4node11per_process18enabled_debug_listE, ptr %list.addr.i, align 8
  store i32 %3, ptr %cat.addr.i3, align 4
  store ptr %4, ptr %format.addr.i4, align 8
  store ptr %5, ptr %args.addr.i5, align 8
  %6 = load ptr, ptr %list.addr.i, align 8
  %7 = load i32, ptr %cat.addr.i3, align 4
  store ptr %6, ptr %this.addr.i.i, align 8
  store i32 %7, ptr %category.addr.i.i, align 4
  %this1.i.i = load ptr, ptr %this.addr.i.i, align 8
  %8 = load i32, ptr %category.addr.i.i, align 4
  %idxprom.i.i = zext i32 %8 to i64
  %arrayidx.i.i = getelementptr inbounds [75 x i8], ptr %this1.i.i, i64 0, i64 %idxprom.i.i
  %9 = load i8, ptr %arrayidx.i.i, align 1
  %tobool.i.i = trunc i8 %9 to i1
  br i1 %tobool.i.i, label %if.end.i, label %if.then.i

if.then.i:                                        ; preds = %if.then
  br label %_ZN4node5DebugIJRNSt7__cxx1112basic_stringIcSt11char_traitsIcESaIcEEEEEEvPNS_16EnabledDebugListENS_13DebugCategoryEPKcDpOT_.exit

if.end.i:                                         ; preds = %if.then
  %10 = load ptr, ptr @stderr, align 8
  %11 = load ptr, ptr %format.addr.i4, align 8
  %12 = load ptr, ptr %args.addr.i5, align 8
  call void @_ZN4node7FPrintFIJRNSt7__cxx1112basic_stringIcSt11char_traitsIcESaIcEEEEEEvP8_IO_FILEPKcDpOT_(ptr noundef %10, ptr noundef %11, ptr noundef nonnull align 8 dereferenceable(32) %12) #15
  br label %_ZN4node5DebugIJRNSt7__cxx1112basic_stringIcSt11char_traitsIcESaIcEEEEEEvPNS_16EnabledDebugListENS_13DebugCategoryEPKcDpOT_.exit

_ZN4node5DebugIJRNSt7__cxx1112basic_stringIcSt11char_traitsIcESaIcEEEEEEvPNS_16EnabledDebugListENS_13DebugCategoryEPKcDpOT_.exit: ; preds = %if.end.i, %if.then.i
  call void @_ZNSt7__cxx1112basic_stringIcSt11char_traitsIcESaIcEED1Ev(ptr noundef nonnull align 8 dereferenceable(32) %raw_message) #3
  br label %if.end

if.end:                                           ; preds = %_ZN4node5DebugIJRNSt7__cxx1112basic_stringIcSt11char_traitsIcESaIcEEEEEEvPNS_16EnabledDebugListENS_13DebugCategoryEPKcDpOT_.exit, %entry
  %delegate_ = getelementptr inbounds %"class.node::inspector::(anonymous namespace)::ChannelImpl", ptr %this1, i32 0, i32 5
  %call2 = call noundef ptr @_ZNKSt10unique_ptrIN4node9inspector24InspectorSessionDelegateESt14default_deleteIS2_EEptEv(ptr noundef nonnull align 8 dereferenceable(8) %delegate_) #3
  %13 = load ptr, ptr %message.addr, align 8
  %vtable = load ptr, ptr %call2, align 8
  %vfn = getelementptr inbounds ptr, ptr %vtable, i64 2
  %14 = load ptr, ptr %vfn, align 8
  call void %14(ptr noundef nonnull align 8 dereferenceable(8) %call2, ptr noundef nonnull align 8 dereferenceable(24) %13)
  ret void
}

; Function Attrs: mustprogress nounwind uwtable
define linkonce_odr dso_local noundef ptr @_ZNKSt10unique_ptrIN12v8_inspector12StringBufferESt14default_deleteIS1_EEptEv(ptr noundef nonnull align 8 dereferenceable(8) %this) #4 comdat align 2 {
entry:
  %this.addr = alloca ptr, align 8
  store ptr %this, ptr %this.addr, align 8
  %this1 = load ptr, ptr %this.addr, align 8
  %call = call noundef ptr @_ZNKSt10unique_ptrIN12v8_inspector12StringBufferESt14default_deleteIS1_EE3getEv(ptr noundef nonnull align 8 dereferenceable(8) %this1) #3
  ret ptr %call
}

; Function Attrs: mustprogress nounwind uwtable
define internal void @_ZN4node9inspector12_GLOBAL__N_111ChannelImpl16sendNotificationESt10unique_ptrIN12v8_inspector12StringBufferESt14default_deleteIS5_EE(ptr noundef nonnull align 8 dereferenceable(72) %this, ptr noundef %message) unnamed_addr #4 align 2 {
entry:
  %this.addr = alloca ptr, align 8
  %message.indirect_addr = alloca ptr, align 8
  %ref.tmp = alloca %"class.v8_inspector::StringView", align 8
  store ptr %this, ptr %this.addr, align 8
  store ptr %message, ptr %message.indirect_addr, align 8
  %this1 = load ptr, ptr %this.addr, align 8
  %call = call noundef ptr @_ZNKSt10unique_ptrIN12v8_inspector12StringBufferESt14default_deleteIS1_EEptEv(ptr noundef nonnull align 8 dereferenceable(8) %message) #3
  %vtable = load ptr, ptr %call, align 8
  %vfn = getelementptr inbounds ptr, ptr %vtable, i64 2
  %0 = load ptr, ptr %vfn, align 8
  call void %0(ptr sret(%"class.v8_inspector::StringView") align 8 %ref.tmp, ptr noundef nonnull align 8 dereferenceable(8) %call)
  call void @_ZN4node9inspector12_GLOBAL__N_111ChannelImpl21sendMessageToFrontendERKN12v8_inspector10StringViewE(ptr noundef nonnull align 8 dereferenceable(72) %this1, ptr noundef nonnull align 8 dereferenceable(24) %ref.tmp)
  ret void
}