; Function Attrs: mustprogress nounwind uwtable
define internal void @_ZN4node9inspector12_GLOBAL__N_111ChannelImpl16sendNotificationESt10unique_ptrIN12v8_inspector12StringBufferESt14default_deleteIS5_EE(ptr nocapture noundef nonnull readonly align 8 dereferenceable(72) %this, ptr nocapture noundef readonly %message) unnamed_addr #3 align 2 {
entry:
  %raw_message.i = alloca %"class.std::__cxx11::basic_string", align 8
  %ref.tmp = alloca %"class.v8_inspector::StringView", align 8
  %0 = load ptr, ptr %message, align 8
  %vtable = load ptr, ptr %0, align 8
  %vfn = getelementptr inbounds i8, ptr %vtable, i64 16
  %1 = load ptr, ptr %vfn, align 8
  call void %1(ptr nonnull sret(%"class.v8_inspector::StringView") align 8 %ref.tmp, ptr noundef nonnull align 8 dereferenceable(8) %0) #23
  call void @llvm.lifetime.start.p0(i64 32, ptr nonnull %raw_message.i)
  %2 = load i8, ptr getelementptr inbounds (%"class.node::EnabledDebugList", ptr @_ZN4node11per_process18enabled_debug_listE, i64 0, i32 0, i64 66), align 1
  %3 = and i8 %2, 1
  %tobool.i.not.i = icmp eq i8 %3, 0
  br i1 %tobool.i.not.i, label %_ZN4node9inspector12_GLOBAL__N_111ChannelImpl21sendMessageToFrontendERKN12v8_inspector10StringViewE.exit, label %if.then.i

if.then.i:                                        ; preds = %entry
  call void @_ZN4node9inspector8protocol10StringUtil16StringViewToUtf8B5cxx11EN12v8_inspector10StringViewE(ptr nonnull sret(%"class.std::__cxx11::basic_string") align 8 %raw_message.i, ptr noundef nonnull byval(%"class.v8_inspector::StringView") align 8 %ref.tmp) #23
  %4 = load i8, ptr getelementptr inbounds (%"class.node::EnabledDebugList", ptr @_ZN4node11per_process18enabled_debug_listE, i64 0, i32 0, i64 66), align 1
  %5 = and i8 %4, 1
  %tobool.i.i.not.i = icmp eq i8 %5, 0
  br i1 %tobool.i.i.not.i, label %_ZN4node5DebugIJRNSt7__cxx1112basic_stringIcSt11char_traitsIcESaIcEEEEEEvPNS_16EnabledDebugListENS_13DebugCategoryEPKcDpOT_.exit.i, label %if.end.i.i

if.end.i.i:                                       ; preds = %if.then.i
  %6 = load ptr, ptr @stderr, align 8
  call void @_ZN4node7FPrintFIJRNSt7__cxx1112basic_stringIcSt11char_traitsIcESaIcEEEEEEvP8_IO_FILEPKcDpOT_(ptr noundef %6, ptr noundef nonnull @.str.86, ptr noundef nonnull align 8 dereferenceable(32) %raw_message.i) #27
  br label %_ZN4node5DebugIJRNSt7__cxx1112basic_stringIcSt11char_traitsIcESaIcEEEEEEvPNS_16EnabledDebugListENS_13DebugCategoryEPKcDpOT_.exit.i

_ZN4node5DebugIJRNSt7__cxx1112basic_stringIcSt11char_traitsIcESaIcEEEEEEvPNS_16EnabledDebugListENS_13DebugCategoryEPKcDpOT_.exit.i: ; preds = %if.end.i.i, %if.then.i
  call void @_ZNSt7__cxx1112basic_stringIcSt11char_traitsIcESaIcEED1Ev(ptr noundef nonnull align 8 dereferenceable(32) %raw_message.i) #23
  br label %_ZN4node9inspector12_GLOBAL__N_111ChannelImpl21sendMessageToFrontendERKN12v8_inspector10StringViewE.exit

_ZN4node9inspector12_GLOBAL__N_111ChannelImpl21sendMessageToFrontendERKN12v8_inspector10StringViewE.exit: ; preds = %entry, %_ZN4node5DebugIJRNSt7__cxx1112basic_stringIcSt11char_traitsIcESaIcEEEEEEvPNS_16EnabledDebugListENS_13DebugCategoryEPKcDpOT_.exit.i
  %delegate_.i = getelementptr inbounds i8, ptr %this, i64 40
  %7 = load ptr, ptr %delegate_.i, align 8
  %vtable.i = load ptr, ptr %7, align 8
  %vfn.i = getelementptr inbounds i8, ptr %vtable.i, i64 16
  %8 = load ptr, ptr %vfn.i, align 8
  call void %8(ptr noundef nonnull align 8 dereferenceable(8) %7, ptr noundef nonnull align 8 dereferenceable(24) %ref.tmp) #23
  call void @llvm.lifetime.end.p0(i64 32, ptr nonnull %raw_message.i)
  ret void
}